target datalayout = "e-m:e-p270:32:32-p271:32:32-p272:64:64-i64:64-i128:128-f80:128-n8:16:32:64-S128"
target triple = "x86_64-pc-linux-gnu"

%"class.std::_Function_base" = type { %"union.std::_Any_data", ptr }
%"union.std::_Any_data" = type { %"union.std::_Nocopy_types" }
%"union.std::_Nocopy_types" = type { { i64, i64 } }
%"class.std::basic_string_view" = type { i64, ptr }
%"struct.nix::Sink" = type { ptr }
%"class.std::function" = type { %"class.std::_Function_base", ptr }
%struct.SourceToSink = type { %"struct.nix::FinishSink", %"class.std::function", %"class.std::optional.103", %"class.std::basic_string_view" }
%"struct.nix::FinishSink" = type { %"struct.nix::Sink" }
%"class.std::optional.103" = type { %"struct.std::_Optional_base.104" }
%"struct.std::_Optional_base.104" = type { %"struct.std::_Optional_payload.106" }
%"struct.std::_Optional_payload.106" = type { %"struct.std::_Optional_payload.base.110", [7 x i8] }
%"struct.std::_Optional_payload.base.110" = type { %"struct.std::_Optional_payload_base.base.109" }
%"struct.std::_Optional_payload_base.base.109" = type <{ %"union.std::_Optional_payload_base<boost::coroutines2::detail::push_coroutine<bool>>::_Storage", i8 }>
%"union.std::_Optional_payload_base<boost::coroutines2::detail::push_coroutine<bool>>::_Storage" = type { %"class.boost::coroutines2::detail::push_coroutine" }
%"class.boost::coroutines2::detail::push_coroutine" = type { ptr }
%"class.boost::context::fiber" = type { ptr }
%"class.std::__exception_ptr::exception_ptr" = type { ptr }
%"struct.boost::coroutines2::detail::pull_coroutine<bool>::control_block" = type <{ %"class.boost::context::fiber", ptr, i32, [4 x i8], %"class.std::__exception_ptr::exception_ptr", i8, %"union.std::aligned_storage<1, 1>::type", [6 x i8] }>
%"union.std::aligned_storage<1, 1>::type" = type { [1 x i8] }
%"class.boost::coroutines2::detail::pull_coroutine" = type { ptr }
%class.anon.118 = type { ptr, ptr }

; Function Attrs: mustprogress nounwind uwtable
define linkonce_odr noundef nonnull align 1 dereferenceable(1) ptr @_ZN5boost11coroutines26detail14pull_coroutineIbE13control_block3getEv(ptr noundef nonnull align 8 dereferenceable(34) %0) #2 comdat align 2 {
  %2 = alloca ptr, align 8
  store ptr %0, ptr %2, align 8
  %3 = load ptr, ptr %2, align 8
  %4 = getelementptr inbounds %"struct.boost::coroutines2::detail::pull_coroutine<bool>::control_block", ptr %3, i32 0, i32 6
  ret ptr %4
}

; Function Attrs: mustprogress nounwind uwtable
define linkonce_odr void @_ZNSt17basic_string_viewIcSt11char_traitsIcEE13remove_prefixEm(ptr noundef nonnull align 8 dereferenceable(16) %0, i64 noundef %1) #2 comdat align 2 {
  %3 = alloca ptr, align 8
  %4 = alloca i64, align 8
  store ptr %0, ptr %3, align 8
  store i64 %1, ptr %4, align 8
  %5 = load ptr, ptr %3, align 8
  br label %6

6:                                                ; preds = %2
  br label %7

7:                                                ; preds = %6
  br label %8

8:                                                ; preds = %7
  %9 = load i64, ptr %4, align 8
  %10 = getelementptr inbounds %"class.std::basic_string_view", ptr %5, i32 0, i32 1
  %11 = load ptr, ptr %10, align 8
  %12 = getelementptr inbounds i8, ptr %11, i64 %9
  store ptr %12, ptr %10, align 8
  %13 = load i64, ptr %4, align 8
  %14 = getelementptr inbounds %"class.std::basic_string_view", ptr %5, i32 0, i32 0
  %15 = load i64, ptr %14, align 8
  %16 = sub i64 %15, %13
  store i64 %16, ptr %14, align 8
  ret void
}

; Function Attrs: mustprogress nounwind uwtable
define linkonce_odr noundef ptr @_ZNKSt17basic_string_viewIcSt11char_traitsIcEE4dataEv(ptr noundef nonnull align 8 dereferenceable(16) %0) #2 comdat align 2 {
  %2 = alloca ptr, align 8
  store ptr %0, ptr %2, align 8
  %3 = load ptr, ptr %2, align 8
  %4 = getelementptr inbounds %"class.std::basic_string_view", ptr %3, i32 0, i32 1
  %5 = load ptr, ptr %4, align 8
  ret ptr %5
}

; Function Attrs: mustprogress nounwind uwtable
define linkonce_odr noundef nonnull align 8 dereferenceable(8) ptr @_ZSt3minImERKT_S2_S2_(ptr noundef nonnull align 8 dereferenceable(8) %0, ptr noundef nonnull align 8 dereferenceable(8) %1) #2 comdat {
  %3 = alloca ptr, align 8
  %4 = alloca ptr, align 8
  %5 = alloca ptr, align 8
  store ptr %0, ptr %4, align 8
  store ptr %1, ptr %5, align 8
  %6 = load ptr, ptr %5, align 8
  %7 = load i64, ptr %6, align 8
  %8 = load ptr, ptr %4, align 8
  %9 = load i64, ptr %8, align 8
  %10 = icmp ult i64 %7, %9
  br i1 %10, label %11, label %13

11:                                               ; preds = %2
  %12 = load ptr, ptr %5, align 8
  store ptr %12, ptr %3, align 8
  br label %15

13:                                               ; preds = %2
  %14 = load ptr, ptr %4, align 8
  store ptr %14, ptr %3, align 8
  br label %15

15:                                               ; preds = %13, %11
  %16 = load ptr, ptr %3, align 8
  ret ptr %16
}

; Function Attrs: mustprogress nounwind uwtable
define linkonce_odr noundef i64 @_ZNKSt17basic_string_viewIcSt11char_traitsIcEE4sizeEv(ptr noundef nonnull align 8 dereferenceable(16) %0) #2 comdat align 2 {
  %2 = alloca ptr, align 8
  store ptr %0, ptr %2, align 8
  %3 = load ptr, ptr %2, align 8
  %4 = getelementptr inbounds %"class.std::basic_string_view", ptr %3, i32 0, i32 0
  %5 = load i64, ptr %4, align 8
  ret i64 %5
}

; Function Attrs: mustprogress nounwind uwtable
define linkonce_odr noundef zeroext i1 @_ZN5boost11coroutines26detail14pull_coroutineIbE3getEv(ptr noundef nonnull align 8 dereferenceable(8) %0) #2 comdat align 2 {
  %2 = alloca ptr, align 8
  store ptr %0, ptr %2, align 8
  %3 = load ptr, ptr %2, align 8
  %4 = getelementptr inbounds %"class.boost::coroutines2::detail::pull_coroutine", ptr %3, i32 0, i32 0
  %5 = load ptr, ptr %4, align 8
  %6 = call noundef nonnull align 1 dereferenceable(1) ptr @_ZN5boost11coroutines26detail14pull_coroutineIbE13control_block3getEv(ptr noundef nonnull align 8 dereferenceable(34) %5) #1
  %7 = load i8, ptr %6, align 1
  %8 = trunc i8 %7 to i1
  ret i1 %8
}

; Function Attrs: mustprogress uwtable
define linkonce_odr noundef nonnull align 8 dereferenceable(8) ptr @_ZN5boost11coroutines26detail14pull_coroutineIbEclEv(ptr noundef nonnull align 8 dereferenceable(8) %0) #3 comdat align 2 {
  %2 = alloca ptr, align 8
  store ptr %0, ptr %2, align 8
  %3 = load ptr, ptr %2, align 8
  %4 = getelementptr inbounds %"class.boost::coroutines2::detail::pull_coroutine", ptr %3, i32 0, i32 0
  %5 = load ptr, ptr %4, align 8
  call void @_ZN5boost11coroutines26detail14pull_coroutineIbE13control_block6resumeEv(ptr noundef nonnull align 8 dereferenceable(34) %5)
  ret ptr %3
}

; Function Attrs: mustprogress nounwind uwtable
define linkonce_odr noundef zeroext i1 @_ZNKSt17basic_string_viewIcSt11char_traitsIcEE5emptyEv(ptr noundef nonnull align 8 dereferenceable(16) %0) #2 comdat align 2 {
  %2 = alloca ptr, align 8
  store ptr %0, ptr %2, align 8
  %3 = load ptr, ptr %2, align 8
  %4 = getelementptr inbounds %"class.std::basic_string_view", ptr %3, i32 0, i32 0
  %5 = load i64, ptr %4, align 8
  %6 = icmp eq i64 %5, 0
  ret i1 %6
}

; Function Attrs: mustprogress uwtable
define internal noundef i64 @_ZZZZN3nix12sourceToSinkESt8functionIFvRNS_6SourceEEEEN12SourceToSinkclESt17basic_string_viewIcSt11char_traitsIcEEENKUlRN5boost11coroutines26detail14pull_coroutineIbEEE_clESF_ENKUlPcmE_clESH_m(ptr noundef nonnull align 8 dereferenceable(16) %0, ptr noundef %1, i64 noundef %2) #3 align 2 {
  %4 = alloca i64, align 8
  %5 = alloca ptr, align 8
  %6 = alloca ptr, align 8
  %7 = alloca i64, align 8
  %8 = alloca i64, align 8
  %9 = alloca i64, align 8
  store ptr %0, ptr %5, align 8
  store ptr %1, ptr %6, align 8
  store i64 %2, ptr %7, align 8
  %10 = load ptr, ptr %5, align 8
  %11 = getelementptr inbounds %class.anon.118, ptr %10, i32 0, i32 0
  %12 = load ptr, ptr %11, align 8
  %13 = getelementptr inbounds %struct.SourceToSink, ptr %12, i32 0, i32 3
  %14 = call noundef zeroext i1 @_ZNKSt17basic_string_viewIcSt11char_traitsIcEE5emptyEv(ptr noundef nonnull align 8 dereferenceable(16) %13) #1
  br i1 %14, label %15, label %24

15:                                               ; preds = %3
  %16 = getelementptr inbounds %class.anon.118, ptr %10, i32 0, i32 1
  %17 = load ptr, ptr %16, align 8
  %18 = call noundef nonnull align 8 dereferenceable(8) ptr @_ZN5boost11coroutines26detail14pull_coroutineIbEclEv(ptr noundef nonnull align 8 dereferenceable(8) %17)
  %19 = getelementptr inbounds %class.anon.118, ptr %10, i32 0, i32 1
  %20 = load ptr, ptr %19, align 8
  %21 = call noundef zeroext i1 @_ZN5boost11coroutines26detail14pull_coroutineIbE3getEv(ptr noundef nonnull align 8 dereferenceable(8) %20) #1
  br i1 %21, label %22, label %23

22:                                               ; preds = %15
  store i64 0, ptr %4, align 8
  br label %36

23:                                               ; preds = %15
  br label %24

24:                                               ; preds = %23, %3
  %25 = getelementptr inbounds %struct.SourceToSink, ptr %12, i32 0, i32 3
  %26 = call noundef i64 @_ZNKSt17basic_string_viewIcSt11char_traitsIcEE4sizeEv(ptr noundef nonnull align 8 dereferenceable(16) %25) #1
  store i64 %26, ptr %9, align 8
  %27 = call noundef nonnull align 8 dereferenceable(8) ptr @_ZSt3minImERKT_S2_S2_(ptr noundef nonnull align 8 dereferenceable(8) %9, ptr noundef nonnull align 8 dereferenceable(8) %7)
  %28 = load i64, ptr %27, align 8
  store i64 %28, ptr %8, align 8
  %29 = load ptr, ptr %6, align 8
  %30 = getelementptr inbounds %struct.SourceToSink, ptr %12, i32 0, i32 3
  %31 = call noundef ptr @_ZNKSt17basic_string_viewIcSt11char_traitsIcEE4dataEv(ptr noundef nonnull align 8 dereferenceable(16) %30) #1
  %32 = load i64, ptr %8, align 8
  call void @llvm.memcpy.p0.p0.i64(ptr align 1 %29, ptr align 1 %31, i64 %32, i1 false)
  %33 = getelementptr inbounds %struct.SourceToSink, ptr %12, i32 0, i32 3
  %34 = load i64, ptr %8, align 8
  call void @_ZNSt17basic_string_viewIcSt11char_traitsIcEE13remove_prefixEm(ptr noundef nonnull align 8 dereferenceable(16) %33, i64 noundef %34) #1
  %35 = load i64, ptr %8, align 8
  store i64 %35, ptr %4, align 8
  br label %36

36:                                               ; preds = %24, %22
  %37 = load i64, ptr %4, align 8
  ret i64 %37
}

; Function Attrs: mustprogress nounwind uwtable
define linkonce_odr noundef ptr @_ZNKSt9_Any_data9_M_accessEv(ptr noundef nonnull align 8 dereferenceable(16) %0) #2 comdat align 2 {
  %2 = alloca ptr, align 8
  store ptr %0, ptr %2, align 8
  %3 = load ptr, ptr %2, align 8
  %4 = getelementptr inbounds [16 x i8], ptr %3, i64 0, i64 0
  ret ptr %4
}

; Function Attrs: mustprogress uwtable
define internal noundef i64 @_ZSt13__invoke_implImRZZZN3nix12sourceToSinkESt8functionIFvRNS0_6SourceEEEEN12SourceToSinkclESt17basic_string_viewIcSt11char_traitsIcEEENKUlRN5boost11coroutines26detail14pull_coroutineIbEEE_clESG_EUlPcmE_JSI_mEET_St14__invoke_otherOT0_DpOT1_(ptr noundef nonnull align 8 dereferenceable(16) %0, ptr noundef nonnull align 8 dereferenceable(8) %1, ptr noundef nonnull align 8 dereferenceable(8) %2) #3 {
  %4 = alloca ptr, align 8
  %5 = alloca ptr, align 8
  %6 = alloca ptr, align 8
  store ptr %0, ptr %4, align 8
  store ptr %1, ptr %5, align 8
  store ptr %2, ptr %6, align 8
  %7 = load ptr, ptr %4, align 8
  %8 = load ptr, ptr %5, align 8
  %9 = load ptr, ptr %8, align 8
  %10 = load ptr, ptr %6, align 8
  %11 = load i64, ptr %10, align 8
  %12 = call noundef i64 @_ZZZZN3nix12sourceToSinkESt8functionIFvRNS_6SourceEEEEN12SourceToSinkclESt17basic_string_viewIcSt11char_traitsIcEEENKUlRN5boost11coroutines26detail14pull_coroutineIbEEE_clESF_ENKUlPcmE_clESH_m(ptr noundef nonnull align 8 dereferenceable(16) %7, ptr noundef %9, i64 noundef %11)
  ret i64 %12
}

; Function Attrs: mustprogress nounwind uwtable
define internal noundef nonnull align 8 dereferenceable(16) ptr @_ZNKSt9_Any_data9_M_accessIZZZN3nix12sourceToSinkESt8functionIFvRNS1_6SourceEEEEN12SourceToSinkclESt17basic_string_viewIcSt11char_traitsIcEEENKUlRN5boost11coroutines26detail14pull_coroutineIbEEE_clESH_EUlPcmE_EERKT_v(ptr noundef nonnull align 8 dereferenceable(16) %0) #2 align 2 {
  %2 = alloca ptr, align 8
  store ptr %0, ptr %2, align 8
  %3 = load ptr, ptr %2, align 8
  %4 = call noundef ptr @_ZNKSt9_Any_data9_M_accessEv(ptr noundef nonnull align 8 dereferenceable(16) %3) #1
  ret ptr %4
}

; Function Attrs: mustprogress uwtable
define internal noundef i64 @_ZSt10__invoke_rImRZZZN3nix12sourceToSinkESt8functionIFvRNS0_6SourceEEEEN12SourceToSinkclESt17basic_string_viewIcSt11char_traitsIcEEENKUlRN5boost11coroutines26detail14pull_coroutineIbEEE_clESG_EUlPcmE_JSI_mEENSt9enable_ifIX16is_invocable_r_vIT_T0_DpT1_EESM_E4typeEOSN_DpOSO_(ptr noundef nonnull align 8 dereferenceable(16) %0, ptr noundef nonnull align 8 dereferenceable(8) %1, ptr noundef nonnull align 8 dereferenceable(8) %2) #3 {
  %4 = alloca ptr, align 8
  %5 = alloca ptr, align 8
  %6 = alloca ptr, align 8
  store ptr %0, ptr %4, align 8
  store ptr %1, ptr %5, align 8
  store ptr %2, ptr %6, align 8
  %7 = load ptr, ptr %4, align 8
  %8 = load ptr, ptr %5, align 8
  %9 = load ptr, ptr %6, align 8
  %10 = call noundef i64 @_ZSt13__invoke_implImRZZZN3nix12sourceToSinkESt8functionIFvRNS0_6SourceEEEEN12SourceToSinkclESt17basic_string_viewIcSt11char_traitsIcEEENKUlRN5boost11coroutines26detail14pull_coroutineIbEEE_clESG_EUlPcmE_JSI_mEET_St14__invoke_otherOT0_DpOT1_(ptr noundef nonnull align 8 dereferenceable(16) %7, ptr noundef nonnull align 8 dereferenceable(8) %8, ptr noundef nonnull align 8 dereferenceable(8) %9)
  ret i64 %10
}

; Function Attrs: mustprogress nounwind uwtable
define internal noundef ptr @_ZNSt14_Function_base13_Base_managerIZZZN3nix12sourceToSinkESt8functionIFvRNS1_6SourceEEEEN12SourceToSinkclESt17basic_string_viewIcSt11char_traitsIcEEENKUlRN5boost11coroutines26detail14pull_coroutineIbEEE_clESH_EUlPcmE_E14_M_get_pointerERKSt9_Any_data(ptr noundef nonnull align 8 dereferenceable(16) %0) #2 align 2 {
  %2 = alloca ptr, align 8
  %3 = alloca ptr, align 8
  store ptr %0, ptr %2, align 8
  %4 = load ptr, ptr %2, align 8
  %5 = call noundef nonnull align 8 dereferenceable(16) ptr @_ZNKSt9_Any_data9_M_accessIZZZN3nix12sourceToSinkESt8functionIFvRNS1_6SourceEEEEN12SourceToSinkclESt17basic_string_viewIcSt11char_traitsIcEEENKUlRN5boost11coroutines26detail14pull_coroutineIbEEE_clESH_EUlPcmE_EERKT_v(ptr noundef nonnull align 8 dereferenceable(16) %4) #1
  store ptr %5, ptr %3, align 8
  %6 = load ptr, ptr %3, align 8
  ret ptr %6
}

; Function Attrs: mustprogress uwtable
define internal noundef i64 @_ZNSt17_Function_handlerIFmPcmEZZZN3nix12sourceToSinkESt8functionIFvRNS2_6SourceEEEEN12SourceToSinkclESt17basic_string_viewIcSt11char_traitsIcEEENKUlRN5boost11coroutines26detail14pull_coroutineIbEEE_clESI_EUlS0_mE_E9_M_invokeERKSt9_Any_dataOS0_Om(ptr noundef nonnull align 8 dereferenceable(16) %0, ptr noundef nonnull align 8 dereferenceable(8) %1, ptr noundef nonnull align 8 dereferenceable(8) %2) #3 align 2 {
  %4 = alloca ptr, align 8
  %5 = alloca ptr, align 8
  %6 = alloca ptr, align 8
  store ptr %0, ptr %4, align 8
  store ptr %1, ptr %5, align 8
  store ptr %2, ptr %6, align 8
  %7 = load ptr, ptr %4, align 8
  %8 = call noundef ptr @_ZNSt14_Function_base13_Base_managerIZZZN3nix12sourceToSinkESt8functionIFvRNS1_6SourceEEEEN12SourceToSinkclESt17basic_string_viewIcSt11char_traitsIcEEENKUlRN5boost11coroutines26detail14pull_coroutineIbEEE_clESH_EUlPcmE_E14_M_get_pointerERKSt9_Any_data(ptr noundef nonnull align 8 dereferenceable(16) %7) #1
  %9 = load ptr, ptr %5, align 8
  %10 = load ptr, ptr %6, align 8
  %11 = call noundef i64 @_ZSt10__invoke_rImRZZZN3nix12sourceToSinkESt8functionIFvRNS0_6SourceEEEEN12SourceToSinkclESt17basic_string_viewIcSt11char_traitsIcEEENKUlRN5boost11coroutines26detail14pull_coroutineIbEEE_clESG_EUlPcmE_JSI_mEENSt9enable_ifIX16is_invocable_r_vIT_T0_DpT1_EESM_E4typeEOSN_DpOSO_(ptr noundef nonnull align 8 dereferenceable(16) %8, ptr noundef nonnull align 8 dereferenceable(8) %9, ptr noundef nonnull align 8 dereferenceable(8) %10)
  ret i64 %11
}