; Function Attrs: mustprogress uwtable
define internal noundef i64 @_ZNSt17_Function_handlerIFmPcmEZZZN3nix12sourceToSinkESt8functionIFvRNS2_6SourceEEEEN12SourceToSinkclESt17basic_string_viewIcSt11char_traitsIcEEENKUlRN5boost11coroutines26detail14pull_coroutineIbEEE_clESI_EUlS0_mE_E9_M_invokeERKSt9_Any_dataOS0_Om(ptr nocapture noundef nonnull readonly align 8 dereferenceable(16) %0, ptr nocapture noundef nonnull readonly align 8 dereferenceable(8) %1, ptr nocapture noundef nonnull readonly align 8 dereferenceable(8) %2) #2 align 2 {
  %.val = load ptr, ptr %1, align 8
  %.val3 = load i64, ptr %2, align 8
  %4 = load ptr, ptr %0, align 8
  %5 = getelementptr inbounds i8, ptr %4, i64 56
  %6 = load i64, ptr %5, align 8
  %7 = icmp eq i64 %6, 0
  br i1 %7, label %8, label %17

8:                                                ; preds = %3
  %9 = getelementptr inbounds i8, ptr %0, i64 8
  %10 = load ptr, ptr %9, align 8
  %11 = load ptr, ptr %10, align 8
  tail call void @_ZN5boost11coroutines26detail14pull_coroutineIbE13control_block6resumeEv(ptr noundef nonnull align 8 dereferenceable(34) %11)
  %12 = load ptr, ptr %9, align 8
  %13 = load ptr, ptr %12, align 8
  %14 = getelementptr inbounds i8, ptr %13, i64 33
  %15 = load i8, ptr %14, align 1
  %16 = and i8 %15, 1
  %.not.i.i.i = icmp eq i8 %16, 0
  br i1 %.not.i.i.i, label %._crit_edge.i.i.i, label %_ZSt10__invoke_rImRZZZN3nix12sourceToSinkESt8functionIFvRNS0_6SourceEEEEN12SourceToSinkclESt17basic_string_viewIcSt11char_traitsIcEEENKUlRN5boost11coroutines26detail14pull_coroutineIbEEE_clESG_EUlPcmE_JSI_mEENSt9enable_ifIX16is_invocable_r_vIT_T0_DpT1_EESM_E4typeEOSN_DpOSO_.exit

._crit_edge.i.i.i:                                ; preds = %8
  %.pre.i.i.i = load i64, ptr %5, align 8
  br label %17

17:                                               ; preds = %._crit_edge.i.i.i, %3
  %18 = phi i64 [ %.pre.i.i.i, %._crit_edge.i.i.i ], [ %6, %3 ]
  %.sroa.speculated.i.i.i = tail call i64 @llvm.umin.i64(i64 %18, i64 %.val3)
  %19 = getelementptr inbounds i8, ptr %4, i64 64
  %20 = load ptr, ptr %19, align 8
  tail call void @llvm.memcpy.p0.p0.i64(ptr align 1 %.val, ptr align 1 %20, i64 %.sroa.speculated.i.i.i, i1 false)
  %21 = load ptr, ptr %19, align 8
  %22 = getelementptr inbounds i8, ptr %21, i64 %.sroa.speculated.i.i.i
  store ptr %22, ptr %19, align 8
  %23 = load i64, ptr %5, align 8
  %24 = sub i64 %23, %.sroa.speculated.i.i.i
  store i64 %24, ptr %5, align 8
  br label %_ZSt10__invoke_rImRZZZN3nix12sourceToSinkESt8functionIFvRNS0_6SourceEEEEN12SourceToSinkclESt17basic_string_viewIcSt11char_traitsIcEEENKUlRN5boost11coroutines26detail14pull_coroutineIbEEE_clESG_EUlPcmE_JSI_mEENSt9enable_ifIX16is_invocable_r_vIT_T0_DpT1_EESM_E4typeEOSN_DpOSO_.exit

_ZSt10__invoke_rImRZZZN3nix12sourceToSinkESt8functionIFvRNS0_6SourceEEEEN12SourceToSinkclESt17basic_string_viewIcSt11char_traitsIcEEENKUlRN5boost11coroutines26detail14pull_coroutineIbEEE_clESG_EUlPcmE_JSI_mEENSt9enable_ifIX16is_invocable_r_vIT_T0_DpT1_EESM_E4typeEOSN_DpOSO_.exit: ; preds = %8, %17
  %.0.i.i.i = phi i64 [ %.sroa.speculated.i.i.i, %17 ], [ 0, %8 ]
  ret i64 %.0.i.i.i
}